target datalayout = "e-m:e-p270:32:32-p271:32:32-p272:64:64-i64:64-i128:128-f80:128-n8:16:32:64-S128"
target triple = "x86_64-unknown-linux-gnu"

%class.rational = type { %class.mpq }
%class.mpq = type { %class.mpz, %class.mpz }
%class.mpz = type { i32, i8, ptr }
%class.arith_rewriter_core = type <{ ptr, %class.arith_util, %class.scoped_ptr, i8, i8, i8, [5 x i8] }>
%class.arith_util = type { ptr, ptr }
%class.scoped_ptr = type { ptr }
%class.obj_ref = type { ptr, ptr }
%class.anon.48 = type { ptr, ptr, ptr, ptr, ptr, ptr }

@_ZN8rational13g_mpq_managerE = external global ptr, align 8

; Function Attrs: mustprogress nounwind uwtable
define linkonce_odr hidden noundef nonnull align 8 dereferenceable(728) ptr @_ZN8rational1mEv() #5 comdat align 2 {
entry:
  %0 = load ptr, ptr @_ZN8rational13g_mpq_managerE, align 8
  ret ptr %0
}

; Function Attrs: mustprogress nounwind uwtable
define linkonce_odr hidden noundef ptr @_ZNK7obj_refI4expr11ast_managerEcvPS0_Ev(ptr noundef nonnull align 8 dereferenceable(16) %this) #5 comdat align 2 {
entry:
  %this.addr = alloca ptr, align 8
  store ptr %this, ptr %this.addr, align 8
  %this1 = load ptr, ptr %this.addr, align 8
  %m_obj = getelementptr inbounds %class.obj_ref, ptr %this1, i32 0, i32 0
  %0 = load ptr, ptr %m_obj, align 8
  ret ptr %0
}

; Function Attrs: mustprogress uwtable
define linkonce_odr hidden noundef nonnull align 8 dereferenceable(32) ptr @_ZN8rationalpLERKS_(ptr noundef nonnull align 8 dereferenceable(32) %this, ptr noundef nonnull align 8 dereferenceable(32) %r) #4 comdat align 2 {
entry:
  %this.addr = alloca ptr, align 8
  %r.addr = alloca ptr, align 8
  store ptr %this, ptr %this.addr, align 8
  store ptr %r, ptr %r.addr, align 8
  %this1 = load ptr, ptr %this.addr, align 8
  %call = call noundef nonnull align 8 dereferenceable(728) ptr @_ZN8rational1mEv()
  %m_val = getelementptr inbounds %class.rational, ptr %this1, i32 0, i32 0
  %0 = load ptr, ptr %r.addr, align 8
  %m_val2 = getelementptr inbounds %class.rational, ptr %0, i32 0, i32 0
  %m_val3 = getelementptr inbounds %class.rational, ptr %this1, i32 0, i32 0
  call void @_ZN11mpq_managerILb1EE3addERK3mpqS3_RS1_(ptr noundef nonnull align 8 dereferenceable(728) %call, ptr noundef nonnull align 8 dereferenceable(32) %m_val, ptr noundef nonnull align 8 dereferenceable(32) %m_val2, ptr noundef nonnull align 8 dereferenceable(32) %m_val3)
  ret ptr %this1
}

; Function Attrs: mustprogress uwtable
define linkonce_odr hidden noundef zeroext i1 @_ZNK10arith_util10is_numeralEPK4exprR8rational(ptr noundef nonnull align 8 dereferenceable(16) %this, ptr noundef %n, ptr noundef nonnull align 8 dereferenceable(32) %val) #4 comdat align 2 {
entry:
  %this.addr = alloca ptr, align 8
  %n.addr = alloca ptr, align 8
  %val.addr = alloca ptr, align 8
  %is_int = alloca i8, align 1
  store ptr %this, ptr %this.addr, align 8
  store ptr %n, ptr %n.addr, align 8
  store ptr %val, ptr %val.addr, align 8
  %this1 = load ptr, ptr %this.addr, align 8
  %0 = load ptr, ptr %n.addr, align 8
  %1 = load ptr, ptr %val.addr, align 8
  %call = call noundef zeroext i1 @_ZNK10arith_util10is_numeralEPK4exprR8rationalRb(ptr noundef nonnull align 8 dereferenceable(16) %this1, ptr noundef %0, ptr noundef nonnull align 8 dereferenceable(32) %1, ptr noundef nonnull align 1 dereferenceable(1) %is_int)
  ret i1 %call
}

; Function Attrs: mustprogress uwtable
define internal void @"_ZZN14arith_rewriter12is_separatedEP4exprS1_NS_7op_kindER7obj_refIS0_11ast_managerEENK3$_0clES1_"(ptr noundef nonnull align 8 dereferenceable(48) %this, ptr noundef %arg) #4 align 2 {
entry:
  %this.addr = alloca ptr, align 8
  %arg.addr = alloca ptr, align 8
  store ptr %this, ptr %this.addr, align 8
  store ptr %arg, ptr %arg.addr, align 8
  %this1 = load ptr, ptr %this.addr, align 8
  %0 = getelementptr inbounds %class.anon.48, ptr %this1, i32 0, i32 0
  %1 = load ptr, ptr %0, align 8
  %m_util = getelementptr inbounds %class.arith_rewriter_core, ptr %1, i32 0, i32 1
  %2 = load ptr, ptr %arg.addr, align 8
  %3 = getelementptr inbounds %class.anon.48, ptr %this1, i32 0, i32 1
  %4 = load ptr, ptr %3, align 8
  %call = call noundef zeroext i1 @_ZNK10arith_util10is_numeralEPK4exprR8rational(ptr noundef nonnull align 8 dereferenceable(16) %m_util, ptr noundef %2, ptr noundef nonnull align 8 dereferenceable(32) %4)
  br i1 %call, label %if.then, label %if.end

if.then:                                          ; preds = %entry
  %5 = getelementptr inbounds %class.anon.48, ptr %this1, i32 0, i32 1
  %6 = load ptr, ptr %5, align 8
  %7 = getelementptr inbounds %class.anon.48, ptr %this1, i32 0, i32 2
  %8 = load ptr, ptr %7, align 8
  %call2 = call noundef nonnull align 8 dereferenceable(32) ptr @_ZN8rationalpLERKS_(ptr noundef nonnull align 8 dereferenceable(32) %8, ptr noundef nonnull align 8 dereferenceable(32) %6)
  br label %return

if.end:                                           ; preds = %entry
  %9 = getelementptr inbounds %class.anon.48, ptr %this1, i32 0, i32 3
  %10 = load ptr, ptr %9, align 8
  %11 = load i32, ptr %10, align 4
  %cmp = icmp eq i32 %11, 0
  br i1 %cmp, label %land.lhs.true, label %if.end5

land.lhs.true:                                    ; preds = %if.end
  %12 = load ptr, ptr %arg.addr, align 8
  %call3 = call noundef zeroext i1 @_ZN14arith_rewriter15is_non_negativeEP4expr(ptr noundef nonnull align 8 dereferenceable(96) %1, ptr noundef %12)
  br i1 %call3, label %if.then4, label %if.end5

if.then4:                                         ; preds = %land.lhs.true
  br label %return

if.end5:                                          ; preds = %land.lhs.true, %if.end
  %13 = getelementptr inbounds %class.anon.48, ptr %this1, i32 0, i32 3
  %14 = load ptr, ptr %13, align 8
  %15 = load i32, ptr %14, align 4
  %cmp6 = icmp eq i32 %15, 1
  br i1 %cmp6, label %land.lhs.true7, label %if.end13

land.lhs.true7:                                   ; preds = %if.end5
  %16 = load ptr, ptr %arg.addr, align 8
  %17 = getelementptr inbounds %class.anon.48, ptr %this1, i32 0, i32 4
  %18 = load ptr, ptr %17, align 8
  %call8 = call noundef zeroext i1 @_ZN14arith_rewriter11is_neg_polyEP4exprR7obj_refIS0_11ast_managerE(ptr noundef nonnull align 8 dereferenceable(96) %1, ptr noundef %16, ptr noundef nonnull align 8 dereferenceable(16) %18)
  br i1 %call8, label %land.lhs.true9, label %if.end13

land.lhs.true9:                                   ; preds = %land.lhs.true7
  %19 = getelementptr inbounds %class.anon.48, ptr %this1, i32 0, i32 4
  %20 = load ptr, ptr %19, align 8
  %call10 = call noundef ptr @_ZNK7obj_refI4expr11ast_managerEcvPS0_Ev(ptr noundef nonnull align 8 dereferenceable(16) %20)
  %call11 = call noundef zeroext i1 @_ZN14arith_rewriter15is_non_negativeEP4expr(ptr noundef nonnull align 8 dereferenceable(96) %1, ptr noundef %call10)
  br i1 %call11, label %if.then12, label %if.end13

if.then12:                                        ; preds = %land.lhs.true9
  br label %return

if.end13:                                         ; preds = %land.lhs.true9, %land.lhs.true7, %if.end5
  %21 = getelementptr inbounds %class.anon.48, ptr %this1, i32 0, i32 5
  %22 = load ptr, ptr %21, align 8
  store i8 0, ptr %22, align 1
  br label %return

return:                                           ; preds = %if.end13, %if.then12, %if.then4, %if.then
  ret void
}