; Function Attrs: mustprogress uwtable
define internal fastcc void @"_ZZN14arith_rewriter12is_separatedEP4exprS1_NS_7op_kindER7obj_refIS0_11ast_managerEENK3$_0clES1_"(ptr nocapture noundef nonnull readonly align 8 dereferenceable(48) %this, ptr noundef %arg) unnamed_addr #3 align 2 {
entry:
  %is_int.i = alloca i8, align 1
  %0 = load ptr, ptr %this, align 8
  %m_util = getelementptr inbounds i8, ptr %0, i64 8
  %1 = getelementptr inbounds i8, ptr %this, i64 8
  %2 = load ptr, ptr %1, align 8
  call void @llvm.lifetime.start.p0(i64 1, ptr nonnull %is_int.i)
  %call.i = call noundef zeroext i1 @_ZNK10arith_util10is_numeralEPK4exprR8rationalRb(ptr noundef nonnull align 8 dereferenceable(16) %m_util, ptr noundef %arg, ptr noundef nonnull align 8 dereferenceable(32) %2, ptr noundef nonnull align 1 dereferenceable(1) %is_int.i)
  call void @llvm.lifetime.end.p0(i64 1, ptr nonnull %is_int.i)
  br i1 %call.i, label %if.then, label %if.end

if.then:                                          ; preds = %entry
  %3 = load ptr, ptr %1, align 8
  %4 = getelementptr inbounds i8, ptr %this, i64 16
  %5 = load ptr, ptr %4, align 8
  %6 = load ptr, ptr @_ZN8rational13g_mpq_managerE, align 8
  call void @_ZN11mpq_managerILb1EE3addERK3mpqS3_RS1_(ptr noundef nonnull align 8 dereferenceable(728) %6, ptr noundef nonnull align 8 dereferenceable(32) %5, ptr noundef nonnull align 8 dereferenceable(32) %3, ptr noundef nonnull align 8 dereferenceable(32) %5)
  br label %return

if.end:                                           ; preds = %entry
  %7 = getelementptr inbounds i8, ptr %this, i64 24
  %8 = load ptr, ptr %7, align 8
  %9 = load i32, ptr %8, align 4
  %cmp = icmp eq i32 %9, 0
  br i1 %cmp, label %land.lhs.true, label %if.end5

land.lhs.true:                                    ; preds = %if.end
  %call3 = call noundef zeroext i1 @_ZN14arith_rewriter15is_non_negativeEP4expr(ptr noundef nonnull align 8 dereferenceable(96) %0, ptr noundef %arg)
  br i1 %call3, label %return, label %land.lhs.true.if.end5_crit_edge

land.lhs.true.if.end5_crit_edge:                  ; preds = %land.lhs.true
  %.pre = load ptr, ptr %7, align 8
  %.pre3 = load i32, ptr %.pre, align 4
  br label %if.end5

if.end5:                                          ; preds = %land.lhs.true.if.end5_crit_edge, %if.end
  %10 = phi i32 [ %.pre3, %land.lhs.true.if.end5_crit_edge ], [ %9, %if.end ]
  %cmp6 = icmp eq i32 %10, 1
  br i1 %cmp6, label %land.lhs.true7, label %if.end13

land.lhs.true7:                                   ; preds = %if.end5
  %11 = getelementptr inbounds i8, ptr %this, i64 32
  %12 = load ptr, ptr %11, align 8
  %call8 = call noundef zeroext i1 @_ZN14arith_rewriter11is_neg_polyEP4exprR7obj_refIS0_11ast_managerE(ptr noundef nonnull align 8 dereferenceable(96) %0, ptr noundef %arg, ptr noundef nonnull align 8 dereferenceable(16) %12)
  br i1 %call8, label %land.lhs.true9, label %if.end13

land.lhs.true9:                                   ; preds = %land.lhs.true7
  %13 = load ptr, ptr %11, align 8
  %14 = load ptr, ptr %13, align 8
  %call11 = call noundef zeroext i1 @_ZN14arith_rewriter15is_non_negativeEP4expr(ptr noundef nonnull align 8 dereferenceable(96) %0, ptr noundef %14)
  br i1 %call11, label %return, label %if.end13

if.end13:                                         ; preds = %land.lhs.true9, %land.lhs.true7, %if.end5
  %15 = getelementptr inbounds i8, ptr %this, i64 40
  %16 = load ptr, ptr %15, align 8
  store i8 0, ptr %16, align 1
  br label %return

return:                                           ; preds = %land.lhs.true9, %land.lhs.true, %if.end13, %if.then
  ret void
}